Is a valid response for the cert until nextUpdate

$ openssl ocsp -resp_text -respin <([OCSP RESPONSE])
OCSP Response Data:
    OCSP Response Status: successful (0x0)
    Response Type: Basic OCSP Response
    Version: 1 (0x0)
    Responder Id: CN = Test Intermediate CA
    Produced At: Mar  2 00:00:00 2017 GMT
    Responses:
    Certificate ID:
      Hash Algorithm: sha1
      Issuer Name Hash: 449B1C5B31C6E9990966523E49C3F773C024190A
      Issuer Key Hash: 4D1A4CE65A33E936A16B3F62C022A3A62C2EEA61
      Serial Number: 05
    Cert Status: good
    This Update: Mar  1 00:00:00 2017 GMT
    Next Update: Jun  1 00:00:00 2017 GMT

    Signature Algorithm: sha1WithRSAEncryption
    Signature Value:
        c1:c9:58:e0:1b:9d:fe:87:ea:16:b7:57:c8:74:ca:3f:24:cf:
        4a:43:c4:b8:a1:f2:48:59:9b:9c:30:4e:5f:0d:b5:c2:39:f8:
        5b:07:3c:5c:fc:5c:06:29:45:4b:f0:73:20:97:62:b7:10:d8:
        79:4b:1b:e8:9a:cb:6d:4b:0a:44:65:a9:0b:3e:aa:b6:8a:3a:
        3c:90:03:1a:f8:95:ac:3f:7b:c3:87:b0:d3:fd:db:15:c0:aa:
        24:e1:21:e7:03:d5:1b:5b:82:36:4a:0f:6b:48:eb:08:63:6c:
        e7:f0:a3:45:67:99:3c:a0:30:b4:9e:46:b1:11:b3:14:3e:ec:
        a1:bc
-----BEGIN OCSP RESPONSE-----
MIIBSgoBAKCCAUMwggE/BgkrBgEFBQcwAQEEggEwMIIBLDCBmKEhMB8xHTAbBgNVBAMMFFRlc3Q
gSW50ZXJtZWRpYXRlIENBGA8yMDE3MDMwMjAwMDAwMFowYjBgMDgwBwYFKw4DAhoEFESbHFsxxu
mZCWZSPknD93PAJBkKBBRNGkzmWjPpNqFrP2LAIqOmLC7qYQIBBYAAGA8yMDE3MDMwMTAwMDAwM
FqgERgPMjAxNzA2MDEwMDAwMDBaMAsGCSqGSIb3DQEBBQOBgQDByVjgG53+h+oWt1fIdMo/JM9K
Q8S4ofJIWZucME5fDbXCOfhbBzxc/FwGKUVL8HMgl2K3ENh5SxvomsttSwpEZakLPqq2ijo8kAM
a+JWsP3vDh7DT/dsVwKok4SHnA9UbW4I2Sg9rSOsIY2zn8KNFZ5k8oDC0nkaxEbMUPuyhvA==
-----END OCSP RESPONSE-----

$ openssl x509 -text < [CA CERTIFICATE]
Certificate:
    Data:
        Version: 3 (0x2)
        Serial Number: 2 (0x2)
        Signature Algorithm: sha256WithRSAEncryption
        Issuer: CN=Test CA
        Validity
            Not Before: Jan  1 00:00:00 2017 GMT
            Not After : Jan  1 00:00:00 2018 GMT
        Subject: CN=Test Intermediate CA
        Subject Public Key Info:
            Public Key Algorithm: rsaEncryption
                Public-Key: (1024 bit)
                Modulus:
                    00:d1:73:c3:b1:b1:90:83:c7:c9:54:0f:60:15:ba:
                    d7:3f:ff:ae:73:6c:94:e4:5f:29:a2:63:0b:bc:10:
                    31:c9:40:c1:21:c6:da:33:eb:5d:6a:3a:b4:e2:1b:
                    af:51:1d:5e:13:bd:d1:ae:8e:7b:14:e0:48:8e:6b:
                    9a:43:1d:06:e1:15:ee:23:48:2a:6c:cf:08:02:f7:
                    88:d7:9d:1f:c0:83:b4:32:31:b9:4c:69:33:71:a5:
                    80:eb:ee:c6:43:bf:c8:12:dc:a6:78:ce:01:35:7c:
                    d8:33:60:2b:12:1b:f2:a3:f8:dd:bf:47:ea:56:2f:
                    34:a0:3f:8f:bf:0c:2e:94:3d
                Exponent: 65537 (0x10001)
    Signature Algorithm: sha256WithRSAEncryption
    Signature Value:
        7b:c4:a6:32:e6:28:f3:0a:35:fd:f2:4c:b4:10:57:b2:4d:0d:
        e3:ac:f8:6e:04:5a:91:06:06:98:e4:52:6f:a0:82:0a:b9:a9:
        66:0a:55:c5:ae:8d:5c:a2:8a:33:b4:13:68:df:17:1d:74:bd:
        00:01:c7:22:df:8d:cf:58:1c:f4:c3:bd:02:63:d6:8b:fc:74:
        31:72:3a:2e:81:d2:5f:68:1c:41:c7:50:29:ec:de:42:00:ca:
        fa:a1:49:60:46:a1:da:43:47:9a:2c:32:44:84:bb:f1:da:cb:
        13:d5:9c:56:64:10:66:79:b1:e2:f0:6f:86:9b:64:42:54:26:
        7a:a4
-----BEGIN CA CERTIFICATE-----
MIIBpTCCAQ6gAwIBAgIBAjANBgkqhkiG9w0BAQsFADASMRAwDgYDVQQDDAdUZXN0IENBMB4XDTE
3MDEwMTAwMDAwMFoXDTE4MDEwMTAwMDAwMFowHzEdMBsGA1UEAwwUVGVzdCBJbnRlcm1lZGlhdG
UgQ0EwgZ8wDQYJKoZIhvcNAQEBBQADgY0AMIGJAoGBANFzw7GxkIPHyVQPYBW61z//rnNslORfK
aJjC7wQMclAwSHG2jPrXWo6tOIbr1EdXhO90a6OexTgSI5rmkMdBuEV7iNIKmzPCAL3iNedH8CD
tDIxuUxpM3GlgOvuxkO/yBLcpnjOATV82DNgKxIb8qP43b9H6lYvNKA/j78MLpQ9AgMBAAEwDQY
JKoZIhvcNAQELBQADgYEAe8SmMuYo8wo1/fJMtBBXsk0N46z4bgRakQYGmORSb6CCCrmpZgpVxa
6NXKKKM7QTaN8XHXS9AAHHIt+Nz1gc9MO9AmPWi/x0MXI6LoHSX2gcQcdQKezeQgDK+qFJYEah2
kNHmiwyRIS78drLE9WcVmQQZnmx4vBvhptkQlQmeqQ=
-----END CA CERTIFICATE-----

$ openssl x509 -text < [CERTIFICATE]
Certificate:
    Data:
        Version: 3 (0x2)
        Serial Number: 5 (0x5)
        Signature Algorithm: sha256WithRSAEncryption
        Issuer: CN=Test Intermediate CA
        Validity
            Not Before: Jan  1 00:00:00 2017 GMT
            Not After : Jan  1 00:00:00 2018 GMT
        Subject: CN=Test Cert
        Subject Public Key Info:
            Public Key Algorithm: rsaEncryption
                Public-Key: (1024 bit)
                Modulus:
                    00:a7:33:5b:9e:8b:aa:9f:46:27:98:ba:1f:bb:29:
                    b7:ee:9f:dc:04:7d:1d:b1:30:67:05:ec:2d:42:42:
                    6d:fd:08:72:eb:2b:af:4c:1b:fc:48:8d:34:f1:83:
                    5e:ea:9a:fe:6f:0e:2a:3c:19:b7:22:77:7d:a9:4b:
                    9a:61:0c:a7:11:25:ba:2e:25:3a:c3:09:94:3d:30:
                    94:98:01:02:0e:f3:f9:77:3b:11:d4:74:56:9b:09:
                    b0:31:ca:0d:c5:81:7c:19:4d:0d:6b:5f:1f:7e:c9:
                    40:fd:01:fe:75:9e:4d:fe:a7:07:5c:68:77:d0:3a:
                    e5:67:b7:0f:6c:cf:1f:e7:4d
                Exponent: 65537 (0x10001)
    Signature Algorithm: sha256WithRSAEncryption
    Signature Value:
        cb:f8:97:de:be:56:e8:8b:91:82:8c:9c:cb:47:6a:9e:75:6d:
        6f:06:db:8b:23:07:37:2f:4d:92:f5:32:7c:4b:3d:3b:b1:ee:
        d9:99:e8:65:bc:d8:57:73:5d:53:f6:a1:f7:a9:ea:c9:bd:41:
        4f:59:23:b2:6f:b1:f6:da:11:30:7d:e3:c2:bb:69:68:d1:64:
        b1:79:aa:49:36:59:a9:0d:2c:38:7d:ad:db:fb:66:99:07:37:
        ed:95:80:d7:bd:af:d1:7c:fc:48:3a:54:53:b5:b0:42:92:b4:
        ed:d4:56:e9:9b:a0:5a:bc:05:ec:c9:3b:55:97:ef:49:d7:c5:
        fe:2e
-----BEGIN CERTIFICATE-----
MIIBpzCCARCgAwIBAgIBBTANBgkqhkiG9w0BAQsFADAfMR0wGwYDVQQDDBRUZXN0IEludGVybWV
kaWF0ZSBDQTAeFw0xNzAxMDEwMDAwMDBaFw0xODAxMDEwMDAwMDBaMBQxEjAQBgNVBAMMCVRlc3
QgQ2VydDCBnzANBgkqhkiG9w0BAQEFAAOBjQAwgYkCgYEApzNbnouqn0YnmLofuym37p/cBH0ds
TBnBewtQkJt/Qhy6yuvTBv8SI008YNe6pr+bw4qPBm3Ind9qUuaYQynESW6LiU6wwmUPTCUmAEC
DvP5dzsR1HRWmwmwMcoNxYF8GU0Na18ffslA/QH+dZ5N/qcHXGh30DrlZ7cPbM8f500CAwEAATA
NBgkqhkiG9w0BAQsFAAOBgQDL+Jfevlboi5GCjJzLR2qedW1vBtuLIwc3L02S9TJ8Sz07se7Zme
hlvNhXc11T9qH3qerJvUFPWSOyb7H22hEwfePCu2lo0WSxeapJNlmpDSw4fa3b+2aZBzftlYDXv
a/RfPxIOlRTtbBCkrTt1Fbpm6BavAXsyTtVl+9J18X+Lg==
-----END CERTIFICATE-----

$ openssl asn1parse -i < [OCSP REQUEST]
    0:d=0  hl=2 l=  66 cons: SEQUENCE          
    2:d=1  hl=2 l=  64 cons:  SEQUENCE          
    4:d=2  hl=2 l=  62 cons:   SEQUENCE          
    6:d=3  hl=2 l=  60 cons:    SEQUENCE          
    8:d=4  hl=2 l=  58 cons:     SEQUENCE          
   10:d=5  hl=2 l=   9 cons:      SEQUENCE          
   12:d=6  hl=2 l=   5 prim:       OBJECT            :sha1
   19:d=6  hl=2 l=   0 prim:       NULL              
   21:d=5  hl=2 l=  20 prim:      OCTET STRING      [HEX DUMP]:449B1C5B31C6E9990966523E49C3F773C024190A
   43:d=5  hl=2 l=  20 prim:      OCTET STRING      [HEX DUMP]:4D1A4CE65A33E936A16B3F62C022A3A62C2EEA61
   65:d=5  hl=2 l=   1 prim:      INTEGER           :05
-----BEGIN OCSP REQUEST-----
MEIwQDA+MDwwOjAJBgUrDgMCGgUABBREmxxbMcbpmQlmUj5Jw/dzwCQZCgQUTRpM5loz6Tahaz9
iwCKjpiwu6mECAQU=
-----END OCSP REQUEST-----
